; Function Attrs: mustprogress uwtable
define noundef zeroext i1 @_ZNK6casadi6Concat14has_duplicatesEv(ptr noundef nonnull align 8 dereferenceable(64) %0) unnamed_addr #3 align 2 {
  %2 = tail call noundef i64 @_ZNK6casadi6MXNode5n_depEv(ptr noundef nonnull align 8 dereferenceable(64) %0)
  %3 = icmp sgt i64 %2, 0
  br i1 %3, label %.lr.ph, label %._crit_edge

.lr.ph:                                           ; preds = %1
  %4 = getelementptr inbounds i8, ptr %0, i64 32
  %5 = getelementptr inbounds i8, ptr %0, i64 40
  br label %6

6:                                                ; preds = %.lr.ph, %_ZNK6casadi6MXNode3depEx.exit
  %.09 = phi i64 [ 0, %.lr.ph ], [ %21, %_ZNK6casadi6MXNode3depEx.exit ]
  %.058 = phi i1 [ false, %.lr.ph ], [ %20, %_ZNK6casadi6MXNode3depEx.exit ]
  %7 = load ptr, ptr %5, align 8
  %8 = load ptr, ptr %4, align 8
  %9 = ptrtoint ptr %7 to i64
  %10 = ptrtoint ptr %8 to i64
  %11 = sub i64 %9, %10
  %12 = ashr exact i64 %11, 3
  %.not.i.i.i = icmp ugt i64 %12, %.09
  br i1 %.not.i.i.i, label %_ZNK6casadi6MXNode3depEx.exit, label %13

13:                                               ; preds = %6
  tail call void (ptr, ...) @_ZSt24__throw_out_of_range_fmtPKcz(ptr noundef nonnull @.str.27, i64 noundef %.09, i64 noundef %12) #19
  unreachable

_ZNK6casadi6MXNode3depEx.exit:                    ; preds = %6
  %14 = getelementptr inbounds %"class.casadi::MX", ptr %8, i64 %.09
  %15 = tail call noundef ptr @_ZNK6casadi2MXptEv(ptr noundef nonnull align 8 dereferenceable(8) %14)
  %16 = load ptr, ptr %15, align 8
  %17 = getelementptr inbounds i8, ptr %16, i64 248
  %18 = load ptr, ptr %17, align 8
  %19 = tail call noundef zeroext i1 %18(ptr noundef nonnull align 8 dereferenceable(64) %15)
  %20 = select i1 %19, i1 true, i1 %.058
  %21 = add nuw nsw i64 %.09, 1
  %22 = tail call noundef i64 @_ZNK6casadi6MXNode5n_depEv(ptr noundef nonnull align 8 dereferenceable(64) %0)
  %23 = icmp slt i64 %21, %22
  br i1 %23, label %6, label %._crit_edge, !llvm.loop !53

._crit_edge:                                      ; preds = %_ZNK6casadi6MXNode3depEx.exit, %1
  %.05.lcssa = phi i1 [ false, %1 ], [ %20, %_ZNK6casadi6MXNode3depEx.exit ]
  ret i1 %.05.lcssa
}